target datalayout = "e-m:e-p270:32:32-p271:32:32-p272:64:64-i64:64-i128:128-f80:128-n8:16:32:64-S128"
target triple = "x86_64-pc-linux-gnu"

%struct.Gia_Man_t_ = type { ptr, ptr, i32, i32, i32, i32, ptr, ptr, i32, i32, i32, ptr, ptr, %struct.Vec_Int_t_, %struct.Vec_Int_t_, i32, i32, i32, %struct.Vec_Int_t_, ptr, ptr, ptr, i32, i32, i32, i32, ptr, ptr, ptr, ptr, ptr, i32, i32, ptr, i32, ptr, ptr, ptr, ptr, ptr, ptr, ptr, ptr, ptr, ptr, ptr, ptr, ptr, ptr, ptr, ptr, ptr, ptr, %struct.Vec_Int_t_, %struct.Vec_Int_t_, ptr, ptr, ptr, ptr, ptr, ptr, ptr, ptr, ptr, ptr, ptr, ptr, ptr, ptr, ptr, ptr, ptr, ptr, ptr, ptr, ptr, i32, float, float, ptr, ptr, i32, ptr, ptr, ptr, ptr, ptr, ptr, ptr, ptr, ptr, ptr, ptr, ptr, ptr, ptr, ptr, i64, i64, ptr, ptr, i32, i32, i32, i32, i32, i32, i32, i32, i32, i32, i32, i32, ptr, ptr, ptr, ptr, ptr, ptr, ptr, ptr, i32, i32, i32, ptr, i32, i32, ptr, ptr, ptr, ptr, ptr, ptr, i32, i32, ptr, %struct.Vec_Int_t_, %struct.Vec_Int_t_, %struct.Vec_Int_t_, ptr, ptr, ptr, i32, i32, i32, i32, ptr, ptr, ptr, ptr, ptr }
%struct.Vec_Int_t_ = type { i32, i32, ptr }
%struct.Gia_Obj_t_ = type <{ i64, i32 }>

@.str.1 = private unnamed_addr constant [2 x i8] c"{\00", align 1
@.str.2 = private unnamed_addr constant [4 x i8] c" %d\00", align 1
@.str.3 = private unnamed_addr constant [4 x i8] c" }\0A\00", align 1
@.str.4 = private unnamed_addr constant [9 x i8] c"Obj %3d\0A\00", align 1
@.str.5 = private unnamed_addr constant [2 x i8] c"\0A\00", align 1

; Function Attrs: inlinehint nounwind uwtable
define internal ptr @Sle_CutLeaves(ptr noundef %0) #2 {
  %2 = alloca ptr, align 8
  store ptr %0, ptr %2, align 8, !tbaa !14
  %3 = load ptr, ptr %2, align 8, !tbaa !14
  %4 = getelementptr inbounds i32, ptr %3, i64 1
  ret ptr %4
}

; Function Attrs: inlinehint nounwind uwtable
define internal i32 @Sle_CutSize(ptr noundef %0) #2 {
  %2 = alloca ptr, align 8
  store ptr %0, ptr %2, align 8, !tbaa !14
  %3 = load ptr, ptr %2, align 8, !tbaa !14
  %4 = getelementptr inbounds i32, ptr %3, i64 0
  %5 = load i32, ptr %4, align 4, !tbaa !8
  %6 = and i32 %5, 15
  ret i32 %6
}

; Function Attrs: nounwind uwtable
define void @Sle_ManPrintCut(ptr noundef %0) #0 {
  %2 = alloca ptr, align 8
  %3 = alloca i32, align 4
  %4 = alloca i32, align 4
  %5 = alloca ptr, align 8
  store ptr %0, ptr %2, align 8, !tbaa !14
  call void @llvm.lifetime.start.p0(i64 4, ptr %3) #12
  %6 = load ptr, ptr %2, align 8, !tbaa !14
  %7 = call i32 @Sle_CutSize(ptr noundef %6)
  store i32 %7, ptr %3, align 4, !tbaa !8
  call void @llvm.lifetime.start.p0(i64 4, ptr %4) #12
  call void @llvm.lifetime.start.p0(i64 8, ptr %5) #12
  %8 = load ptr, ptr %2, align 8, !tbaa !14
  %9 = call ptr @Sle_CutLeaves(ptr noundef %8)
  store ptr %9, ptr %5, align 8, !tbaa !14
  %10 = call i32 (ptr, ...) @printf(ptr noundef @.str.1)
  store i32 0, ptr %4, align 4, !tbaa !8
  br label %11

11:                                               ; preds = %22, %1
  %12 = load i32, ptr %4, align 4, !tbaa !8
  %13 = load i32, ptr %3, align 4, !tbaa !8
  %14 = icmp slt i32 %12, %13
  br i1 %14, label %15, label %25

15:                                               ; preds = %11
  %16 = load ptr, ptr %5, align 8, !tbaa !14
  %17 = load i32, ptr %4, align 4, !tbaa !8
  %18 = sext i32 %17 to i64
  %19 = getelementptr inbounds i32, ptr %16, i64 %18
  %20 = load i32, ptr %19, align 4, !tbaa !8
  %21 = call i32 (ptr, ...) @printf(ptr noundef @.str.2, i32 noundef %20)
  br label %22

22:                                               ; preds = %15
  %23 = load i32, ptr %4, align 4, !tbaa !8
  %24 = add nsw i32 %23, 1
  store i32 %24, ptr %4, align 4, !tbaa !8
  br label %11, !llvm.loop !55

25:                                               ; preds = %11
  %26 = call i32 (ptr, ...) @printf(ptr noundef @.str.3)
  call void @llvm.lifetime.end.p0(i64 8, ptr %5) #12
  call void @llvm.lifetime.end.p0(i64 4, ptr %4) #12
  call void @llvm.lifetime.end.p0(i64 4, ptr %3) #12
  ret void
}

; Function Attrs: inlinehint nounwind uwtable
define internal ptr @Vec_IntEntryP(ptr noundef %0, i32 noundef %1) #2 {
  %3 = alloca ptr, align 8
  %4 = alloca i32, align 4
  store ptr %0, ptr %3, align 8, !tbaa !10
  store i32 %1, ptr %4, align 4, !tbaa !8
  %5 = load ptr, ptr %3, align 8, !tbaa !10
  %6 = getelementptr inbounds nuw %struct.Vec_Int_t_, ptr %5, i32 0, i32 2
  %7 = load ptr, ptr %6, align 8, !tbaa !37
  %8 = load i32, ptr %4, align 4, !tbaa !8
  %9 = sext i32 %8 to i64
  %10 = getelementptr inbounds i32, ptr %7, i64 %9
  ret ptr %10
}

; Function Attrs: inlinehint nounwind uwtable
define internal i32 @Vec_IntEntry(ptr noundef %0, i32 noundef %1) #2 {
  %3 = alloca ptr, align 8
  %4 = alloca i32, align 4
  store ptr %0, ptr %3, align 8, !tbaa !10
  store i32 %1, ptr %4, align 4, !tbaa !8
  %5 = load ptr, ptr %3, align 8, !tbaa !10
  %6 = getelementptr inbounds nuw %struct.Vec_Int_t_, ptr %5, i32 0, i32 2
  %7 = load ptr, ptr %6, align 8, !tbaa !37
  %8 = load i32, ptr %4, align 4, !tbaa !8
  %9 = sext i32 %8 to i64
  %10 = getelementptr inbounds i32, ptr %7, i64 %9
  %11 = load i32, ptr %10, align 4, !tbaa !8
  ret i32 %11
}

; Function Attrs: nounwind uwtable
define void @Sle_ManPrintCuts(ptr noundef %0, ptr noundef %1, i32 noundef %2) #0 {
  %4 = alloca ptr, align 8
  %5 = alloca ptr, align 8
  %6 = alloca i32, align 4
  %7 = alloca i32, align 4
  %8 = alloca ptr, align 8
  %9 = alloca ptr, align 8
  store ptr %0, ptr %4, align 8, !tbaa !3
  store ptr %1, ptr %5, align 8, !tbaa !10
  store i32 %2, ptr %6, align 4, !tbaa !8
  call void @llvm.lifetime.start.p0(i64 4, ptr %7) #12
  call void @llvm.lifetime.start.p0(i64 8, ptr %8) #12
  call void @llvm.lifetime.start.p0(i64 8, ptr %9) #12
  %10 = load ptr, ptr %5, align 8, !tbaa !10
  %11 = load ptr, ptr %5, align 8, !tbaa !10
  %12 = load i32, ptr %6, align 4, !tbaa !8
  %13 = call i32 @Vec_IntEntry(ptr noundef %11, i32 noundef %12)
  %14 = call ptr @Vec_IntEntryP(ptr noundef %10, i32 noundef %13)
  store ptr %14, ptr %9, align 8, !tbaa !14
  %15 = load i32, ptr %6, align 4, !tbaa !8
  %16 = call i32 (ptr, ...) @printf(ptr noundef @.str.4, i32 noundef %15)
  store i32 0, ptr %7, align 4, !tbaa !8
  %17 = load ptr, ptr %9, align 8, !tbaa !14
  %18 = getelementptr inbounds i32, ptr %17, i64 1
  store ptr %18, ptr %8, align 8, !tbaa !14
  br label %19

19:                                               ; preds = %27, %3
  %20 = load i32, ptr %7, align 4, !tbaa !8
  %21 = load ptr, ptr %9, align 8, !tbaa !14
  %22 = getelementptr inbounds i32, ptr %21, i64 0
  %23 = load i32, ptr %22, align 4, !tbaa !8
  %24 = icmp slt i32 %20, %23
  br i1 %24, label %25, label %36

25:                                               ; preds = %19
  %26 = load ptr, ptr %8, align 8, !tbaa !14
  call void @Sle_ManPrintCut(ptr noundef %26)
  br label %27

27:                                               ; preds = %25
  %28 = load i32, ptr %7, align 4, !tbaa !8
  %29 = add nsw i32 %28, 1
  store i32 %29, ptr %7, align 4, !tbaa !8
  %30 = load ptr, ptr %8, align 8, !tbaa !14
  %31 = call i32 @Sle_CutSize(ptr noundef %30)
  %32 = add nsw i32 %31, 1
  %33 = load ptr, ptr %8, align 8, !tbaa !14
  %34 = sext i32 %32 to i64
  %35 = getelementptr inbounds i32, ptr %33, i64 %34
  store ptr %35, ptr %8, align 8, !tbaa !14
  br label %19, !llvm.loop !56

36:                                               ; preds = %19
  %37 = call i32 (ptr, ...) @printf(ptr noundef @.str.5)
  call void @llvm.lifetime.end.p0(i64 8, ptr %9) #12
  call void @llvm.lifetime.end.p0(i64 8, ptr %8) #12
  call void @llvm.lifetime.end.p0(i64 4, ptr %7) #12
  ret void
}

; Function Attrs: inlinehint nounwind uwtable
define internal i32 @Gia_ObjIsAnd(ptr noundef %0) #2 {
  %2 = alloca ptr, align 8
  store ptr %0, ptr %2, align 8, !tbaa !12
  %3 = load ptr, ptr %2, align 8, !tbaa !12
  %4 = load i64, ptr %3, align 4
  %5 = lshr i64 %4, 31
  %6 = and i64 %5, 1
  %7 = trunc i64 %6 to i32
  %8 = icmp ne i32 %7, 0
  br i1 %8, label %15, label %9

9:                                                ; preds = %1
  %10 = load ptr, ptr %2, align 8, !tbaa !12
  %11 = load i64, ptr %10, align 4
  %12 = and i64 %11, 536870911
  %13 = trunc i64 %12 to i32
  %14 = icmp ne i32 %13, 536870911
  br label %15

15:                                               ; preds = %9, %1
  %16 = phi i1 [ false, %1 ], [ %14, %9 ]
  %17 = zext i1 %16 to i32
  ret i32 %17
}

; Function Attrs: inlinehint nounwind uwtable
define internal ptr @Gia_ManObj(ptr noundef %0, i32 noundef %1) #2 {
  %3 = alloca ptr, align 8
  %4 = alloca i32, align 4
  store ptr %0, ptr %3, align 8, !tbaa !3
  store i32 %1, ptr %4, align 4, !tbaa !8
  %5 = load ptr, ptr %3, align 8, !tbaa !3
  %6 = getelementptr inbounds nuw %struct.Gia_Man_t_, ptr %5, i32 0, i32 6
  %7 = load ptr, ptr %6, align 8, !tbaa !20
  %8 = load i32, ptr %4, align 4, !tbaa !8
  %9 = sext i32 %8 to i64
  %10 = getelementptr inbounds %struct.Gia_Obj_t_, ptr %7, i64 %9
  ret ptr %10
}

; Function Attrs: nounwind uwtable
define void @Sle_ManPrintCutsAll(ptr noundef %0, ptr noundef %1) #0 {
  %3 = alloca ptr, align 8
  %4 = alloca ptr, align 8
  %5 = alloca i32, align 4
  store ptr %0, ptr %3, align 8, !tbaa !3
  store ptr %1, ptr %4, align 8, !tbaa !10
  call void @llvm.lifetime.start.p0(i64 4, ptr %5) #12
  store i32 0, ptr %5, align 4, !tbaa !8
  br label %6

6:                                                ; preds = %24, %2
  %7 = load i32, ptr %5, align 4, !tbaa !8
  %8 = load ptr, ptr %3, align 8, !tbaa !3
  %9 = getelementptr inbounds nuw %struct.Gia_Man_t_, ptr %8, i32 0, i32 4
  %10 = load i32, ptr %9, align 8, !tbaa !49
  %11 = icmp slt i32 %7, %10
  br i1 %11, label %12, label %27

12:                                               ; preds = %6
  %13 = load ptr, ptr %3, align 8, !tbaa !3
  %14 = load i32, ptr %5, align 4, !tbaa !8
  %15 = call ptr @Gia_ManObj(ptr noundef %13, i32 noundef %14)
  %16 = call i32 @Gia_ObjIsAnd(ptr noundef %15)
  %17 = icmp ne i32 %16, 0
  br i1 %17, label %19, label %18

18:                                               ; preds = %12
  br label %23

19:                                               ; preds = %12
  %20 = load ptr, ptr %3, align 8, !tbaa !3
  %21 = load ptr, ptr %4, align 8, !tbaa !10
  %22 = load i32, ptr %5, align 4, !tbaa !8
  call void @Sle_ManPrintCuts(ptr noundef %20, ptr noundef %21, i32 noundef %22)
  br label %23

23:                                               ; preds = %19, %18
  br label %24

24:                                               ; preds = %23
  %25 = load i32, ptr %5, align 4, !tbaa !8
  %26 = add nsw i32 %25, 1
  store i32 %26, ptr %5, align 4, !tbaa !8
  br label %6, !llvm.loop !57

27:                                               ; preds = %6
  call void @llvm.lifetime.end.p0(i64 4, ptr %5) #12
  ret void
}