; Function Attrs: nofree nounwind uwtable
define void @Sle_ManPrintCutsAll(ptr noundef readonly captures(none) %0, ptr noundef readonly captures(none) %1) local_unnamed_addr #5 {
  %3 = getelementptr inbounds nuw i8, ptr %0, i64 24
  %4 = load i32, ptr %3, align 8, !tbaa !44
  %5 = icmp sgt i32 %4, 0
  br i1 %5, label %.lr.ph, label %._crit_edge

.lr.ph:                                           ; preds = %2
  %6 = getelementptr i8, ptr %0, i64 32
  %7 = getelementptr i8, ptr %1, i64 8
  br label %8

8:                                                ; preds = %.lr.ph, %34
  %9 = phi i32 [ %4, %.lr.ph ], [ %35, %34 ]
  %indvars.iv = phi i64 [ 0, %.lr.ph ], [ %indvars.iv.next, %34 ]
  %.val = load ptr, ptr %6, align 8, !tbaa !3
  %10 = getelementptr inbounds nuw %struct.Gia_Obj_t_, ptr %.val, i64 %indvars.iv
  %.val7 = load i64, ptr %10, align 4
  %11 = and i64 %.val7, 2147483648
  %.not.i = icmp ne i64 %11, 0
  %12 = and i64 %.val7, 536870911
  %13 = icmp eq i64 %12, 536870911
  %narrow.i.not = or i1 %.not.i, %13
  br i1 %narrow.i.not, label %34, label %14

14:                                               ; preds = %8
  %.val.i = load ptr, ptr %7, align 8, !tbaa !28
  %15 = getelementptr inbounds nuw i32, ptr %.val.i, i64 %indvars.iv
  %16 = load i32, ptr %15, align 4, !tbaa !29
  %17 = sext i32 %16 to i64
  %18 = getelementptr inbounds i32, ptr %.val.i, i64 %17
  %19 = trunc nuw nsw i64 %indvars.iv to i32
  %20 = tail call i32 (ptr, ...) @printf(ptr noundef nonnull dereferenceable(1) @.str.4, i32 noundef %19)
  %21 = load i32, ptr %18, align 4, !tbaa !29
  %22 = icmp sgt i32 %21, 0
  br i1 %22, label %.lr.ph.i, label %Sle_ManPrintCuts.exit

.lr.ph.i:                                         ; preds = %14, %Sle_ManPrintCut.exit.i
  %.013.i = phi i32 [ %28, %Sle_ManPrintCut.exit.i ], [ 0, %14 ]
  %.pn12.i = phi ptr [ %31, %Sle_ManPrintCut.exit.i ], [ %18, %14 ]
  %.010.i = getelementptr inbounds nuw i8, ptr %.pn12.i, i64 4
  %.val.i.i = load i32, ptr %.010.i, align 4, !tbaa !29
  %23 = and i32 %.val.i.i, 15
  %24 = getelementptr inbounds nuw i8, ptr %.pn12.i, i64 8
  %putchar.i.i = tail call i32 @putchar(i32 123)
  %.not.i.i = icmp eq i32 %23, 0
  br i1 %.not.i.i, label %Sle_ManPrintCut.exit.i, label %.lr.ph.preheader.i.i

.lr.ph.preheader.i.i:                             ; preds = %.lr.ph.i
  %wide.trip.count.i.i = zext nneg i32 %23 to i64
  br label %.lr.ph.i.i

.lr.ph.i.i:                                       ; preds = %.lr.ph.i.i, %.lr.ph.preheader.i.i
  %indvars.iv.i.i = phi i64 [ 0, %.lr.ph.preheader.i.i ], [ %indvars.iv.next.i.i, %.lr.ph.i.i ]
  %25 = getelementptr inbounds nuw i32, ptr %24, i64 %indvars.iv.i.i
  %26 = load i32, ptr %25, align 4, !tbaa !29
  %27 = tail call i32 (ptr, ...) @printf(ptr noundef nonnull dereferenceable(1) @.str.2, i32 noundef %26)
  %indvars.iv.next.i.i = add nuw nsw i64 %indvars.iv.i.i, 1
  %exitcond.not.i.i = icmp eq i64 %indvars.iv.next.i.i, %wide.trip.count.i.i
  br i1 %exitcond.not.i.i, label %Sle_ManPrintCut.exit.i, label %.lr.ph.i.i, !llvm.loop !52

Sle_ManPrintCut.exit.i:                           ; preds = %.lr.ph.i.i, %.lr.ph.i
  %puts.i.i = tail call i32 @puts(ptr nonnull dereferenceable(1) @str.1)
  %28 = add nuw nsw i32 %.013.i, 1
  %.010.val.i = load i32, ptr %.010.i, align 4, !tbaa !29
  %29 = and i32 %.010.val.i, 15
  %30 = zext nneg i32 %29 to i64
  %31 = getelementptr inbounds nuw i32, ptr %.010.i, i64 %30
  %32 = load i32, ptr %18, align 4, !tbaa !29
  %33 = icmp slt i32 %28, %32
  br i1 %33, label %.lr.ph.i, label %Sle_ManPrintCuts.exit, !llvm.loop !53

Sle_ManPrintCuts.exit:                            ; preds = %Sle_ManPrintCut.exit.i, %14
  %putchar.i = tail call i32 @putchar(i32 10)
  %.pre = load i32, ptr %3, align 8, !tbaa !44
  br label %34

34:                                               ; preds = %Sle_ManPrintCuts.exit, %8
  %35 = phi i32 [ %.pre, %Sle_ManPrintCuts.exit ], [ %9, %8 ]
  %indvars.iv.next = add nuw nsw i64 %indvars.iv, 1
  %36 = sext i32 %35 to i64
  %37 = icmp slt i64 %indvars.iv.next, %36
  br i1 %37, label %8, label %._crit_edge, !llvm.loop !54

._crit_edge:                                      ; preds = %34, %2
  ret void
}